; Function Attrs: mustprogress nounwind uwtable
define hidden void @_ZN21LoaderConstraintTable26remove_failed_loaded_klassEP13InstanceKlassP15ClassLoaderData(ptr noundef readonly %0, ptr noundef %1) local_unnamed_addr #0 align 2 {
  %3 = load ptr, ptr @SystemDictionary_lock, align 8
  %.not.i.i = icmp eq ptr %3, null
  br i1 %.not.i.i, label %_ZN11MutexLockerC2EP5MutexNS0_18SafepointCheckFlagE.exit, label %4

4:                                                ; preds = %2
  tail call void @_ZN5Mutex4lockEv(ptr noundef nonnull align 8 dereferenceable(104) %3) #12
  br label %_ZN11MutexLockerC2EP5MutexNS0_18SafepointCheckFlagE.exit

_ZN11MutexLockerC2EP5MutexNS0_18SafepointCheckFlagE.exit: ; preds = %2, %4
  %5 = getelementptr inbounds i8, ptr %0, i64 24
  %6 = load ptr, ptr %5, align 8
  %7 = tail call noundef ptr @_ZN21LoaderConstraintTable22find_loader_constraintEP6SymbolP15ClassLoaderData(ptr noundef %6, ptr noundef %1)
  %.not = icmp eq ptr %7, null
  br i1 %.not, label %16, label %8

8:                                                ; preds = %_ZN11MutexLockerC2EP5MutexNS0_18SafepointCheckFlagE.exit
  %9 = load ptr, ptr %7, align 8
  %.not9 = icmp ne ptr %9, null
  %10 = icmp eq ptr %9, %0
  %or.cond = and i1 %.not9, %10
  br i1 %or.cond, label %11, label %16

11:                                               ; preds = %8
  %12 = load volatile ptr, ptr getelementptr inbounds (i8, ptr @_ZN16LogTagSetMappingILN6LogTag4typeE16ELS1_75ELS1_24ELS1_0ELS1_0ELS1_0EE7_tagsetE, i64 64), align 8
  %.not11 = icmp eq ptr %12, null
  br i1 %.not11, label %15, label %13

13:                                               ; preds = %11
  %14 = tail call noundef ptr @_ZNK6Symbol11as_C_stringEv(ptr noundef nonnull align 4 dereferenceable(8) %6) #12
  tail call void (ptr, ...) @_ZN7LogImplILN6LogTag4typeE16ELS1_75ELS1_24ELS1_0ELS1_0ELS1_0EE5writeILN8LogLevel4typeE3EEEvPKcz(ptr noundef nonnull @.str.13, ptr noundef %14)
  br label %15

15:                                               ; preds = %11, %13
  store ptr null, ptr %7, align 8
  br label %16

16:                                               ; preds = %15, %8, %_ZN11MutexLockerC2EP5MutexNS0_18SafepointCheckFlagE.exit
  br i1 %.not.i.i, label %_ZN11MutexLockerD2Ev.exit, label %17

17:                                               ; preds = %16
  tail call void @_ZN5Mutex6unlockEv(ptr noundef nonnull align 8 dereferenceable(104) %3) #12
  br label %_ZN11MutexLockerD2Ev.exit

_ZN11MutexLockerD2Ev.exit:                        ; preds = %16, %17
  ret void
}